target datalayout = "e-m:e-p270:32:32-p271:32:32-p272:64:64-i64:64-i128:128-f80:128-n8:16:32:64-S128"
target triple = "x86_64-pc-linux-gnu"

%struct.tag_AlsaPcmInfo = type { ptr, ptr, ptr, i32, i32, i32, i64, i16, i16, ptr }

; Function Attrs: nounwind uwtable
define hidden i32 @xrun_recovery(ptr noundef %0, i32 noundef %1) #0 {
  %3 = alloca i32, align 4
  %4 = alloca ptr, align 8
  %5 = alloca i32, align 4
  %6 = alloca i32, align 4
  store ptr %0, ptr %4, align 8
  store i32 %1, ptr %5, align 4
  %7 = load i32, ptr %5, align 4
  %8 = icmp eq i32 %7, -32
  br i1 %8, label %9, label %18

9:                                                ; preds = %2
  %10 = load ptr, ptr %4, align 8
  %11 = getelementptr inbounds %struct.tag_AlsaPcmInfo, ptr %10, i32 0, i32 0
  %12 = load ptr, ptr %11, align 8
  %13 = call i32 @snd_pcm_prepare(ptr noundef %12)
  store i32 %13, ptr %6, align 4
  %14 = load i32, ptr %6, align 4
  %15 = icmp slt i32 %14, 0
  br i1 %15, label %16, label %17

16:                                               ; preds = %9
  store i32 -1, ptr %3, align 4
  br label %49

17:                                               ; preds = %9
  store i32 1, ptr %3, align 4
  br label %49

18:                                               ; preds = %2
  %19 = load i32, ptr %5, align 4
  %20 = icmp eq i32 %19, -86
  br i1 %20, label %21, label %42

21:                                               ; preds = %18
  %22 = load ptr, ptr %4, align 8
  %23 = getelementptr inbounds %struct.tag_AlsaPcmInfo, ptr %22, i32 0, i32 0
  %24 = load ptr, ptr %23, align 8
  %25 = call i32 @snd_pcm_resume(ptr noundef %24)
  store i32 %25, ptr %6, align 4
  %26 = load i32, ptr %6, align 4
  %27 = icmp slt i32 %26, 0
  br i1 %27, label %28, label %33

28:                                               ; preds = %21
  %29 = load i32, ptr %6, align 4
  %30 = icmp eq i32 %29, -11
  br i1 %30, label %31, label %32

31:                                               ; preds = %28
  store i32 0, ptr %3, align 4
  br label %49

32:                                               ; preds = %28
  store i32 -1, ptr %3, align 4
  br label %49

33:                                               ; preds = %21
  %34 = load ptr, ptr %4, align 8
  %35 = getelementptr inbounds %struct.tag_AlsaPcmInfo, ptr %34, i32 0, i32 0
  %36 = load ptr, ptr %35, align 8
  %37 = call i32 @snd_pcm_prepare(ptr noundef %36)
  store i32 %37, ptr %6, align 4
  %38 = load i32, ptr %6, align 4
  %39 = icmp slt i32 %38, 0
  br i1 %39, label %40, label %41

40:                                               ; preds = %33
  store i32 -1, ptr %3, align 4
  br label %49

41:                                               ; preds = %33
  store i32 1, ptr %3, align 4
  br label %49

42:                                               ; preds = %18
  %43 = load i32, ptr %5, align 4
  %44 = icmp eq i32 %43, -11
  br i1 %44, label %45, label %46

45:                                               ; preds = %42
  store i32 0, ptr %3, align 4
  br label %49

46:                                               ; preds = %42
  br label %47

47:                                               ; preds = %46
  br label %48

48:                                               ; preds = %47
  store i32 -1, ptr %3, align 4
  br label %49

49:                                               ; preds = %48, %45, %41, %40, %32, %31, %17, %16
  %50 = load i32, ptr %3, align 4
  ret i32 %50
}

; Function Attrs: nounwind uwtable
define hidden i32 @DAUDIO_Read(ptr noundef %0, ptr noundef %1, i32 noundef %2) #0 {
  %4 = alloca i32, align 4
  %5 = alloca ptr, align 8
  %6 = alloca ptr, align 8
  %7 = alloca i32, align 4
  %8 = alloca ptr, align 8
  %9 = alloca i32, align 4
  %10 = alloca i32, align 4
  %11 = alloca i64, align 8
  %12 = alloca i64, align 8
  store ptr %0, ptr %5, align 8
  store ptr %1, ptr %6, align 8
  store i32 %2, ptr %7, align 4
  %13 = load ptr, ptr %5, align 8
  store ptr %13, ptr %8, align 8
  %14 = load i32, ptr %7, align 4
  %15 = icmp sle i32 %14, 0
  br i1 %15, label %21, label %16

16:                                               ; preds = %3
  %17 = load ptr, ptr %8, align 8
  %18 = getelementptr inbounds %struct.tag_AlsaPcmInfo, ptr %17, i32 0, i32 4
  %19 = load i32, ptr %18, align 4
  %20 = icmp sle i32 %19, 0
  br i1 %20, label %21, label %22

21:                                               ; preds = %16, %3
  store i32 -1, ptr %4, align 4
  br label %77

22:                                               ; preds = %16
  %23 = load ptr, ptr %8, align 8
  %24 = getelementptr inbounds %struct.tag_AlsaPcmInfo, ptr %23, i32 0, i32 7
  %25 = load i16, ptr %24, align 8
  %26 = icmp ne i16 %25, 0
  br i1 %26, label %34, label %27

27:                                               ; preds = %22
  %28 = load ptr, ptr %8, align 8
  %29 = getelementptr inbounds %struct.tag_AlsaPcmInfo, ptr %28, i32 0, i32 8
  %30 = load i16, ptr %29, align 2
  %31 = sext i16 %30 to i32
  %32 = icmp ne i32 %31, 0
  br i1 %32, label %33, label %34

33:                                               ; preds = %27
  store i32 0, ptr %4, align 4
  br label %77

34:                                               ; preds = %27, %22
  store i32 2, ptr %10, align 4
  %35 = load i32, ptr %7, align 4
  %36 = load ptr, ptr %8, align 8
  %37 = getelementptr inbounds %struct.tag_AlsaPcmInfo, ptr %36, i32 0, i32 4
  %38 = load i32, ptr %37, align 4
  %39 = sdiv i32 %35, %38
  %40 = sext i32 %39 to i64
  store i64 %40, ptr %11, align 8
  br label %41

41:                                               ; preds = %67, %34
  %42 = load ptr, ptr %8, align 8
  %43 = getelementptr inbounds %struct.tag_AlsaPcmInfo, ptr %42, i32 0, i32 0
  %44 = load ptr, ptr %43, align 8
  %45 = load ptr, ptr %6, align 8
  %46 = load i64, ptr %11, align 8
  %47 = call i64 @snd_pcm_readi(ptr noundef %44, ptr noundef %45, i64 noundef %46)
  store i64 %47, ptr %12, align 8
  %48 = load i64, ptr %12, align 8
  %49 = icmp slt i64 %48, 0
  br i1 %49, label %50, label %65

50:                                               ; preds = %41
  %51 = load ptr, ptr %8, align 8
  %52 = load i64, ptr %12, align 8
  %53 = trunc i64 %52 to i32
  %54 = call i32 @xrun_recovery(ptr noundef %51, i32 noundef %53)
  store i32 %54, ptr %9, align 4
  %55 = load i32, ptr %9, align 4
  %56 = icmp sle i32 %55, 0
  br i1 %56, label %57, label %59

57:                                               ; preds = %50
  %58 = load i32, ptr %9, align 4
  store i32 %58, ptr %4, align 4
  br label %77

59:                                               ; preds = %50
  %60 = load i32, ptr %10, align 4
  %61 = add nsw i32 %60, -1
  store i32 %61, ptr %10, align 4
  %62 = icmp sle i32 %60, 0
  br i1 %62, label %63, label %64

63:                                               ; preds = %59
  store i32 -1, ptr %4, align 4
  br label %77

64:                                               ; preds = %59
  br label %66

65:                                               ; preds = %41
  br label %68

66:                                               ; preds = %64
  br label %67

67:                                               ; preds = %66
  br i1 true, label %41, label %68

68:                                               ; preds = %67, %65
  %69 = load i64, ptr %12, align 8
  %70 = load ptr, ptr %8, align 8
  %71 = getelementptr inbounds %struct.tag_AlsaPcmInfo, ptr %70, i32 0, i32 4
  %72 = load i32, ptr %71, align 4
  %73 = sext i32 %72 to i64
  %74 = mul nsw i64 %69, %73
  %75 = trunc i64 %74 to i32
  store i32 %75, ptr %9, align 4
  %76 = load i32, ptr %9, align 4
  store i32 %76, ptr %4, align 4
  br label %77

77:                                               ; preds = %68, %63, %57, %33, %21
  %78 = load i32, ptr %4, align 4
  ret i32 %78
}