; Function Attrs: nounwind uwtable
define hidden i32 @DAUDIO_Read(ptr nocapture noundef readonly %0, ptr noundef %1, i32 noundef %2) local_unnamed_addr #0 {
  %4 = icmp slt i32 %2, 1
  br i1 %4, label %xrun_recovery.exit.thread, label %5

5:                                                ; preds = %3
  %6 = getelementptr inbounds i8, ptr %0, i64 28
  %7 = load i32, ptr %6, align 4
  %8 = icmp slt i32 %7, 1
  br i1 %8, label %xrun_recovery.exit.thread, label %9

9:                                                ; preds = %5
  %10 = getelementptr inbounds i8, ptr %0, i64 48
  %11 = load i16, ptr %10, align 8
  %.not = icmp eq i16 %11, 0
  br i1 %.not, label %12, label %15

12:                                               ; preds = %9
  %13 = getelementptr inbounds i8, ptr %0, i64 50
  %14 = load i16, ptr %13, align 2
  %.not23 = icmp eq i16 %14, 0
  br i1 %.not23, label %15, label %xrun_recovery.exit.thread

15:                                               ; preds = %12, %9
  %16 = udiv i32 %2, %7
  %17 = zext nneg i32 %16 to i64
  br label %18

18:                                               ; preds = %xrun_recovery.exit, %15
  %.019 = phi i32 [ 2, %15 ], [ %36, %xrun_recovery.exit ]
  %19 = load ptr, ptr %0, align 8
  %20 = tail call i64 @snd_pcm_readi(ptr noundef %19, ptr noundef %1, i64 noundef %17) #8
  %21 = icmp slt i64 %20, 0
  br i1 %21, label %22, label %38

22:                                               ; preds = %18
  %23 = trunc i64 %20 to i32
  switch i32 %23, label %xrun_recovery.exit.thread [
    i32 -32, label %24
    i32 -86, label %27
    i32 -11, label %xrun_recovery.exit.thread.loopexit
  ]

24:                                               ; preds = %22
  %25 = load ptr, ptr %0, align 8
  %26 = tail call i32 @snd_pcm_prepare(ptr noundef %25) #8
  %.inv14.i = icmp sgt i32 %26, -1
  br i1 %.inv14.i, label %xrun_recovery.exit, label %xrun_recovery.exit.thread

27:                                               ; preds = %22
  %28 = load ptr, ptr %0, align 8
  %29 = tail call i32 @snd_pcm_resume(ptr noundef %28) #8
  %30 = icmp slt i32 %29, 0
  br i1 %30, label %31, label %33

31:                                               ; preds = %27
  %32 = icmp ne i32 %29, -11
  %.12.i = sext i1 %32 to i32
  br label %xrun_recovery.exit.thread

33:                                               ; preds = %27
  %34 = load ptr, ptr %0, align 8
  %35 = tail call i32 @snd_pcm_prepare(ptr noundef %34) #8
  %.inv.i = icmp sgt i32 %35, -1
  br i1 %.inv.i, label %xrun_recovery.exit, label %xrun_recovery.exit.thread

xrun_recovery.exit:                               ; preds = %33, %24
  %36 = add nsw i32 %.019, -1
  %37 = icmp eq i32 %.019, 0
  br i1 %37, label %xrun_recovery.exit.thread, label %18

38:                                               ; preds = %18
  %39 = load i32, ptr %6, align 4
  %40 = trunc i64 %20 to i32
  %41 = mul i32 %39, %40
  br label %xrun_recovery.exit.thread

xrun_recovery.exit.thread.loopexit:               ; preds = %22
  br label %xrun_recovery.exit.thread

xrun_recovery.exit.thread:                        ; preds = %33, %24, %xrun_recovery.exit, %22, %xrun_recovery.exit.thread.loopexit, %31, %12, %3, %5, %38
  %.0 = phi i32 [ %41, %38 ], [ -1, %5 ], [ -1, %3 ], [ 0, %12 ], [ %.12.i, %31 ], [ 0, %xrun_recovery.exit.thread.loopexit ], [ -1, %22 ], [ -1, %xrun_recovery.exit ], [ -1, %24 ], [ -1, %33 ]
  ret i32 %.0
}